; Function Attrs: mustprogress nounwind uwtable
define internal fastcc void @_ZN12_GLOBAL__N_112TribufWorkerD2Ev(ptr nocapture noundef nonnull readonly align 8 dereferenceable(96) %0) unnamed_addr #3 align 2 personality ptr @__gxx_personality_v0 {
  %2 = getelementptr inbounds i8, ptr %0, i64 8
  %3 = getelementptr inbounds i8, ptr %0, i64 64
  %4 = load ptr, ptr %3, align 8
  %.not.i.i.i.i.i = icmp eq ptr %4, null
  br i1 %.not.i.i.i.i.i, label %_ZNSt6vectorIiSaIiEED2Ev.exit.i.i, label %5

5:                                                ; preds = %1
  tail call void @_ZdlPv(ptr noundef nonnull %4) #20
  br label %_ZNSt6vectorIiSaIiEED2Ev.exit.i.i

_ZNSt6vectorIiSaIiEED2Ev.exit.i.i:                ; preds = %5, %1
  %6 = getelementptr inbounds i8, ptr %0, i64 32
  %7 = load ptr, ptr %6, align 8
  %.not.i.i.i.i.i.i.i = icmp eq ptr %7, null
  br i1 %.not.i.i.i.i.i.i.i, label %_ZNSt6vectorIN5Yosys7hashlib4poolINS0_5RTLIL6SigBitENS1_8hash_opsIS4_EEE7entry_tESaIS8_EED2Ev.exit.i.i.i.i, label %8

8:                                                ; preds = %_ZNSt6vectorIiSaIiEED2Ev.exit.i.i
  tail call void @_ZdlPv(ptr noundef nonnull %7) #20
  br label %_ZNSt6vectorIN5Yosys7hashlib4poolINS0_5RTLIL6SigBitENS1_8hash_opsIS4_EEE7entry_tESaIS8_EED2Ev.exit.i.i.i.i

_ZNSt6vectorIN5Yosys7hashlib4poolINS0_5RTLIL6SigBitENS1_8hash_opsIS4_EEE7entry_tESaIS8_EED2Ev.exit.i.i.i.i: ; preds = %8, %_ZNSt6vectorIiSaIiEED2Ev.exit.i.i
  %9 = load ptr, ptr %2, align 8
  %.not.i.i.i1.i.i.i.i = icmp eq ptr %9, null
  br i1 %.not.i.i.i1.i.i.i.i, label %_ZN5Yosys6SigMapD2Ev.exit, label %10

10:                                               ; preds = %_ZNSt6vectorIN5Yosys7hashlib4poolINS0_5RTLIL6SigBitENS1_8hash_opsIS4_EEE7entry_tESaIS8_EED2Ev.exit.i.i.i.i
  tail call void @_ZdlPv(ptr noundef nonnull %9) #20
  br label %_ZN5Yosys6SigMapD2Ev.exit

_ZN5Yosys6SigMapD2Ev.exit:                        ; preds = %_ZNSt6vectorIN5Yosys7hashlib4poolINS0_5RTLIL6SigBitENS1_8hash_opsIS4_EEE7entry_tESaIS8_EED2Ev.exit.i.i.i.i, %10
  ret void
}